; Function Attrs: nounwind uwtable
define i32 @Bmc_ComputeCanonical(ptr noundef %0, ptr noundef readonly captures(none) %1, ptr noundef readnone captures(none) %2, i32 noundef %3) local_unnamed_addr #0 {
  %5 = sext i32 %3 to i64
  tail call void @sat_solver_set_resource_limits(ptr noundef %0, i64 noundef %5, i64 noundef 0, i64 noundef 0, i64 noundef 0) #16
  %6 = getelementptr i8, ptr %1, i64 8
  %.val4 = load ptr, ptr %6, align 8, !tbaa !29
  %7 = getelementptr i8, ptr %1, i64 4
  %.val = load i32, ptr %7, align 4, !tbaa !28
  %8 = tail call i32 @sat_solver_solve_lexsat(ptr noundef %0, ptr noundef %.val4, i32 noundef %.val) #16
  ret i32 %8
}